target datalayout = "e-m:e-p270:32:32-p271:32:32-p272:64:64-i64:64-i128:128-f80:128-n8:16:32:64-S128"
target triple = "x86_64-pc-linux-gnu"

%struct.jit_State = type { %struct.GCtrace, ptr, ptr, ptr, ptr, ptr, ptr, i32, i32, i32, i8, i8, %struct.IRType1, i8, %struct.FoldState, ptr, i32, i32, i32, i32, i32, i32, i32, [1 x i32], [5 x %union.TValue], [3 x %union.TValue], ptr, i32, i32, i32, i32, ptr, ptr, i32, i32, i8, ptr, i32, i32, i16, [101 x i16], [258 x i32], [15 x i32], [16 x ptr], [64 x %struct.HotPenalty], i32, [16 x %struct.BPropEntry], i32, %struct.ScEvEntry, ptr, i32, i32, i32, ptr, i32, i32, ptr, ptr, ptr, i64, i64, %union.TValue, ptr, i32, i32 }
%struct.GCtrace = type { %struct.GCRef, i8, i8, i16, i32, i32, %struct.GCRef, ptr, i32, i32, ptr, ptr, %struct.GCRef, %struct.MRef, i32, i32, ptr, i32, i16, i16, i16, i16, i16, i16, i16, i8, i8, i8, i8 }
%struct.GCRef = type { i64 }
%struct.MRef = type { i64 }
%struct.IRType1 = type { i8 }
%struct.FoldState = type { %union.IRIns, [2 x %union.IRIns], [2 x %union.IRIns] }
%union.IRIns = type { %struct.GCRef }
%struct.HotPenalty = type { %struct.MRef, i16, i16 }
%struct.BPropEntry = type { i16, i16, i32 }
%struct.ScEvEntry = type { %struct.MRef, i16, i16, i16, i16, %struct.IRType1, i8 }
%union.TValue = type { i64 }
%struct.RecordFFData = type { ptr, i64, i32 }
%struct.anon = type { i16, i16, i16, i16 }

@.str = private unnamed_addr constant [24 x i8] c"store to dead GC object\00", align 1

; Function Attrs: alwaysinline nounwind uwtable
define internal void @checklivetv(ptr noundef %0, ptr noundef %1, ptr noundef %2) #2 {
  %4 = alloca ptr, align 8
  %5 = alloca ptr, align 8
  %6 = alloca ptr, align 8
  store ptr %0, ptr %4, align 8, !tbaa !102
  store ptr %1, ptr %5, align 8, !tbaa !67
  store ptr %2, ptr %6, align 8, !tbaa !153
  ret void
}

; Function Attrs: alwaysinline nounwind uwtable
define internal void @setgcVraw(ptr noundef %0, ptr noundef %1, i32 noundef %2) #2 {
  %4 = alloca ptr, align 8
  %5 = alloca ptr, align 8
  %6 = alloca i32, align 4
  store ptr %0, ptr %4, align 8, !tbaa !67
  store ptr %1, ptr %5, align 8, !tbaa !151
  store i32 %2, ptr %6, align 4, !tbaa !31
  %7 = load ptr, ptr %5, align 8, !tbaa !151
  %8 = ptrtoint ptr %7 to i64
  %9 = load i32, ptr %6, align 4, !tbaa !31
  %10 = zext i32 %9 to i64
  %11 = shl i64 %10, 47
  %12 = or i64 %8, %11
  %13 = load ptr, ptr %4, align 8, !tbaa !67
  %14 = getelementptr inbounds nuw %struct.GCRef, ptr %13, i32 0, i32 0
  store i64 %12, ptr %14, align 8, !tbaa !58
  ret void
}

; Function Attrs: alwaysinline nounwind uwtable
define internal void @setgcV(ptr noundef %0, ptr noundef %1, ptr noundef %2, i32 noundef %3) #2 {
  %5 = alloca ptr, align 8
  %6 = alloca ptr, align 8
  %7 = alloca ptr, align 8
  %8 = alloca i32, align 4
  store ptr %0, ptr %5, align 8, !tbaa !102
  store ptr %1, ptr %6, align 8, !tbaa !67
  store ptr %2, ptr %7, align 8, !tbaa !151
  store i32 %3, ptr %8, align 4, !tbaa !31
  %9 = load ptr, ptr %6, align 8, !tbaa !67
  %10 = load ptr, ptr %7, align 8, !tbaa !151
  %11 = load i32, ptr %8, align 4, !tbaa !31
  call void @setgcVraw(ptr noundef %9, ptr noundef %10, i32 noundef %11)
  %12 = load ptr, ptr %5, align 8, !tbaa !102
  %13 = load ptr, ptr %6, align 8, !tbaa !67
  call void @checklivetv(ptr noundef %12, ptr noundef %13, ptr noundef @.str)
  ret void
}

; Function Attrs: alwaysinline nounwind uwtable
define internal void @setfuncV(ptr noundef %0, ptr noundef %1, ptr noundef %2) #2 {
  %4 = alloca ptr, align 8
  %5 = alloca ptr, align 8
  %6 = alloca ptr, align 8
  store ptr %0, ptr %4, align 8, !tbaa !102
  store ptr %1, ptr %5, align 8, !tbaa !67
  store ptr %2, ptr %6, align 8, !tbaa !125
  %7 = load ptr, ptr %4, align 8, !tbaa !102
  %8 = load ptr, ptr %5, align 8, !tbaa !67
  %9 = load ptr, ptr %6, align 8, !tbaa !125
  call void @setgcV(ptr noundef %7, ptr noundef %8, ptr noundef %9, i32 noundef -9)
  ret void
}

; Function Attrs: alwaysinline nounwind uwtable
define internal void @lj_ir_set_(ptr noundef %0, i16 noundef zeroext %1, i16 noundef zeroext %2, i16 noundef zeroext %3) #2 {
  %5 = alloca ptr, align 8
  %6 = alloca i16, align 2
  %7 = alloca i16, align 2
  %8 = alloca i16, align 2
  store ptr %0, ptr %5, align 8, !tbaa !4
  store i16 %1, ptr %6, align 2, !tbaa !70
  store i16 %2, ptr %7, align 2, !tbaa !70
  store i16 %3, ptr %8, align 2, !tbaa !70
  %9 = load i16, ptr %6, align 2, !tbaa !70
  %10 = load ptr, ptr %5, align 8, !tbaa !4
  %11 = getelementptr inbounds nuw %struct.jit_State, ptr %10, i32 0, i32 14
  %12 = getelementptr inbounds nuw %struct.FoldState, ptr %11, i32 0, i32 0
  %13 = getelementptr inbounds nuw %struct.anon, ptr %12, i32 0, i32 2
  store i16 %9, ptr %13, align 4, !tbaa !58
  %14 = load i16, ptr %7, align 2, !tbaa !70
  %15 = load ptr, ptr %5, align 8, !tbaa !4
  %16 = getelementptr inbounds nuw %struct.jit_State, ptr %15, i32 0, i32 14
  %17 = getelementptr inbounds nuw %struct.FoldState, ptr %16, i32 0, i32 0
  %18 = getelementptr inbounds nuw %struct.anon, ptr %17, i32 0, i32 0
  store i16 %14, ptr %18, align 8, !tbaa !58
  %19 = load i16, ptr %8, align 2, !tbaa !70
  %20 = load ptr, ptr %5, align 8, !tbaa !4
  %21 = getelementptr inbounds nuw %struct.jit_State, ptr %20, i32 0, i32 14
  %22 = getelementptr inbounds nuw %struct.FoldState, ptr %21, i32 0, i32 0
  %23 = getelementptr inbounds nuw %struct.anon, ptr %22, i32 0, i32 1
  store i16 %19, ptr %23, align 2, !tbaa !58
  ret void
}

; Function Attrs: nounwind uwtable
define hidden void @recff_ffi_typeof(ptr noundef %0, ptr noundef %1) #0 {
  %3 = alloca ptr, align 8
  %4 = alloca ptr, align 8
  %5 = alloca i32, align 4
  store ptr %0, ptr %3, align 8, !tbaa !4
  store ptr %1, ptr %4, align 8, !tbaa !9
  %6 = load ptr, ptr %3, align 8, !tbaa !4
  %7 = getelementptr inbounds nuw %struct.jit_State, ptr %6, i32 0, i32 6
  %8 = load ptr, ptr %7, align 8, !tbaa !11
  %9 = getelementptr inbounds i32, ptr %8, i64 0
  %10 = load i32, ptr %9, align 4, !tbaa !31
  %11 = and i32 %10, 520093696
  %12 = icmp eq i32 %11, 167772160
  br i1 %12, label %13, label %39

13:                                               ; preds = %2
  call void @llvm.lifetime.start.p0(i64 4, ptr %5) #7
  %14 = load ptr, ptr %3, align 8, !tbaa !4
  %15 = load ptr, ptr %3, align 8, !tbaa !4
  %16 = load ptr, ptr %3, align 8, !tbaa !4
  %17 = getelementptr inbounds nuw %struct.jit_State, ptr %16, i32 0, i32 6
  %18 = load ptr, ptr %17, align 8, !tbaa !11
  %19 = getelementptr inbounds i32, ptr %18, i64 0
  %20 = load i32, ptr %19, align 4, !tbaa !31
  %21 = load ptr, ptr %4, align 8, !tbaa !9
  %22 = getelementptr inbounds nuw %struct.RecordFFData, ptr %21, i32 0, i32 0
  %23 = load ptr, ptr %22, align 8, !tbaa !33
  %24 = getelementptr inbounds %union.TValue, ptr %23, i64 0
  %25 = call i32 @argv2ctype(ptr noundef %15, i32 noundef %20, ptr noundef %24)
  %26 = call i32 @lj_ir_kint(ptr noundef %14, i32 noundef %25)
  store i32 %26, ptr %5, align 4, !tbaa !31
  %27 = load ptr, ptr %3, align 8, !tbaa !4
  %28 = load ptr, ptr %3, align 8, !tbaa !4
  %29 = call i32 @lj_ir_kint(ptr noundef %28, i32 noundef 22)
  %30 = trunc i32 %29 to i16
  %31 = load i32, ptr %5, align 4, !tbaa !31
  %32 = trunc i32 %31 to i16
  call void @lj_ir_set_(ptr noundef %27, i16 noundef zeroext 21642, i16 noundef zeroext %30, i16 noundef zeroext %32)
  %33 = load ptr, ptr %3, align 8, !tbaa !4
  %34 = call i32 @lj_opt_fold(ptr noundef %33)
  %35 = load ptr, ptr %3, align 8, !tbaa !4
  %36 = getelementptr inbounds nuw %struct.jit_State, ptr %35, i32 0, i32 6
  %37 = load ptr, ptr %36, align 8, !tbaa !11
  %38 = getelementptr inbounds i32, ptr %37, i64 0
  store i32 %34, ptr %38, align 4, !tbaa !31
  call void @llvm.lifetime.end.p0(i64 4, ptr %5) #7
  br label %49

39:                                               ; preds = %2
  %40 = load ptr, ptr %3, align 8, !tbaa !4
  %41 = getelementptr inbounds nuw %struct.jit_State, ptr %40, i32 0, i32 2
  %42 = load ptr, ptr %41, align 8, !tbaa !85
  %43 = load ptr, ptr %3, align 8, !tbaa !4
  %44 = getelementptr inbounds nuw %struct.jit_State, ptr %43, i32 0, i32 61
  %45 = load ptr, ptr %3, align 8, !tbaa !4
  %46 = getelementptr inbounds nuw %struct.jit_State, ptr %45, i32 0, i32 4
  %47 = load ptr, ptr %46, align 8, !tbaa !124
  call void @setfuncV(ptr noundef %42, ptr noundef %44, ptr noundef %47)
  %48 = load ptr, ptr %3, align 8, !tbaa !4
  call void @lj_trace_err_info(ptr noundef %48, i32 noundef 15) #8
  unreachable

49:                                               ; preds = %13
  ret void
}