; Function Attrs: nounwind uwtable
define hidden void @recff_ffi_typeof(ptr noundef %0, ptr noundef readonly captures(none) %1) local_unnamed_addr #0 {
  %3 = getelementptr inbounds nuw i8, ptr %0, i64 160
  %4 = load ptr, ptr %3, align 8, !tbaa !4
  %5 = load i32, ptr %4, align 4, !tbaa !27
  %6 = and i32 %5, 520093696
  %7 = icmp eq i32 %6, 167772160
  br i1 %7, label %8, label %20

8:                                                ; preds = %2
  %9 = load ptr, ptr %1, align 8, !tbaa !28
  %10 = tail call fastcc i32 @argv2ctype(ptr noundef nonnull %0, i32 noundef %5, ptr noundef %9)
  %11 = tail call i32 @lj_ir_kint(ptr noundef nonnull %0, i32 noundef %10) #8
  %12 = tail call i32 @lj_ir_kint(ptr noundef nonnull %0, i32 noundef 22) #8
  %13 = trunc i32 %12 to i16
  %14 = trunc i32 %11 to i16
  %15 = getelementptr inbounds nuw i8, ptr %0, i64 184
  %16 = getelementptr inbounds nuw i8, ptr %0, i64 188
  store i16 21642, ptr %16, align 4, !tbaa !31
  store i16 %13, ptr %15, align 8, !tbaa !31
  %17 = getelementptr inbounds nuw i8, ptr %0, i64 186
  store i16 %14, ptr %17, align 2, !tbaa !31
  %18 = tail call i32 @lj_opt_fold(ptr noundef nonnull %0) #8
  %19 = load ptr, ptr %3, align 8, !tbaa !4
  store i32 %18, ptr %19, align 4, !tbaa !27
  ret void

20:                                               ; preds = %2
  %21 = getelementptr inbounds nuw i8, ptr %0, i64 3088
  %22 = getelementptr inbounds nuw i8, ptr %0, i64 144
  %23 = load ptr, ptr %22, align 8, !tbaa !128
  %24 = ptrtoint ptr %23 to i64
  %25 = or i64 %24, -1266637395197952
  store i64 %25, ptr %21, align 8, !tbaa !31
  tail call void @lj_trace_err_info(ptr noundef nonnull %0, i32 noundef 15) #7
  unreachable
}